; Function Attrs: mustprogress nounwind uwtable
define void @_ZN6icu_776number4impl25UFormattedNumberRangeImplD2Ev(ptr noundef nonnull align 8 dereferenceable(504) initializes((32, 40)) %0) unnamed_addr #0 align 2 {
  %2 = getelementptr inbounds nuw i8, ptr %0, i64 24
  %3 = getelementptr inbounds nuw i8, ptr %0, i64 32
  store ptr null, ptr %3, align 8, !tbaa !41
  %4 = getelementptr inbounds nuw i8, ptr %0, i64 48
  tail call void @_ZN6icu_776number4impl25UFormattedNumberRangeDataD1Ev(ptr noundef nonnull align 8 dereferenceable(452) %4) #15
  tail call void @_ZN6icu_776number20FormattedNumberRangeD1Ev(ptr noundef nonnull align 8 dereferenceable(20) %2) #15
  %5 = getelementptr inbounds nuw i8, ptr %0, i64 16
  store i32 0, ptr %5, align 8, !tbaa !20
  store i32 0, ptr %0, align 8, !tbaa !15
  ret void
}